target datalayout = "e-m:e-p270:32:32-p271:32:32-p272:64:64-i64:64-i128:128-f80:128-n8:16:32:64-S128"
target triple = "x86_64-pc-linux-gnu"

%"class.std::ios_base::Init" = type { i8 }
%"class.cvc5::internal::FatalStream" = type { i8 }
%"class.std::ios_base" = type { ptr, i64, i64, i32, i32, i32, ptr, %"struct.std::ios_base::_Words", [8 x %"struct.std::ios_base::_Words"], i32, ptr, %"class.std::locale" }
%"struct.std::ios_base::_Words" = type { ptr, i64 }
%"class.std::locale" = type { ptr }

$_ZNSt11char_traitsIcE6lengthEPKc = comdat any

$_ZStorSt12_Ios_IostateS_ = comdat any

@_ZStL8__ioinit = internal global %"class.std::ios_base::Init" zeroinitializer, align 1
@__dso_handle = external hidden global i8
@.str = private unnamed_addr constant [27 x i8] c"ROUND_NEAREST_TIES_TO_EVEN\00", align 1
@.str.1 = private unnamed_addr constant [22 x i8] c"ROUND_TOWARD_POSITIVE\00", align 1
@.str.2 = private unnamed_addr constant [22 x i8] c"ROUND_TOWARD_NEGATIVE\00", align 1
@.str.3 = private unnamed_addr constant [18 x i8] c"ROUND_TOWARD_ZERO\00", align 1
@.str.4 = private unnamed_addr constant [27 x i8] c"ROUND_NEAREST_TIES_TO_AWAY\00", align 1
@__PRETTY_FUNCTION__._ZN4cvc58internallsERSoNS0_12RoundingModeE = private unnamed_addr constant [71 x i8] c"std::ostream &cvc5::internal::operator<<(std::ostream &, RoundingMode)\00", align 1
@.str.5 = private unnamed_addr constant [113 x i8] c"generated/home/dtcxzyw/WorkSpace/Projects/compilers/llvm-opt-benchmark/bench/cvc5/cvc5/src/util/roundingmode.cpp\00", align 1
@.str.6 = private unnamed_addr constant [26 x i8] c"Unreachable code reached \00", align 1
@llvm.global_ctors = appending global [1 x { i32, ptr, ptr }] [{ i32, ptr, ptr } { i32 65535, ptr @_GLOBAL__sub_I_roundingmode.cpp, ptr null }]

; Function Attrs: uwtable
define internal void @__cxx_global_var_init() #0 section ".text.startup" {
  call void @_ZNSt8ios_base4InitC1Ev(ptr noundef nonnull align 1 dereferenceable(1) @_ZStL8__ioinit)
  %1 = call i32 @__cxa_atexit(ptr @_ZNSt8ios_base4InitD1Ev, ptr @_ZStL8__ioinit, ptr @__dso_handle) #3
  ret void
}

declare void @_ZNSt8ios_base4InitC1Ev(ptr noundef nonnull align 1 dereferenceable(1)) unnamed_addr #1

; Function Attrs: nounwind
declare void @_ZNSt8ios_base4InitD1Ev(ptr noundef nonnull align 1 dereferenceable(1)) unnamed_addr #2

; Function Attrs: nounwind
declare i32 @__cxa_atexit(ptr, ptr, ptr) #3

; Function Attrs: mustprogress uwtable
define hidden noundef nonnull align 8 dereferenceable(8) ptr @_ZN4cvc58internallsERSoNS0_12RoundingModeE(ptr noundef nonnull align 8 dereferenceable(8) %0, i32 noundef %1) #4 personality ptr @__gxx_personality_v0 {
  %3 = alloca ptr, align 8
  %4 = alloca i32, align 4
  %5 = alloca %"class.cvc5::internal::FatalStream", align 1
  %6 = alloca ptr, align 8
  %7 = alloca i32, align 4
  store ptr %0, ptr %3, align 8, !tbaa !3
  store i32 %1, ptr %4, align 4, !tbaa !8
  %8 = load i32, ptr %4, align 4, !tbaa !8
  switch i32 %8, label %24 [
    i32 0, label %9
    i32 2048, label %12
    i32 1024, label %15
    i32 3072, label %18
    i32 15, label %21
  ]

9:                                                ; preds = %2
  %10 = load ptr, ptr %3, align 8, !tbaa !3
  %11 = call noundef nonnull align 8 dereferenceable(8) ptr @_ZStlsISt11char_traitsIcEERSt13basic_ostreamIcT_ES5_PKc(ptr noundef nonnull align 8 dereferenceable(8) %10, ptr noundef @.str)
  br label %34

12:                                               ; preds = %2
  %13 = load ptr, ptr %3, align 8, !tbaa !3
  %14 = call noundef nonnull align 8 dereferenceable(8) ptr @_ZStlsISt11char_traitsIcEERSt13basic_ostreamIcT_ES5_PKc(ptr noundef nonnull align 8 dereferenceable(8) %13, ptr noundef @.str.1)
  br label %34

15:                                               ; preds = %2
  %16 = load ptr, ptr %3, align 8, !tbaa !3
  %17 = call noundef nonnull align 8 dereferenceable(8) ptr @_ZStlsISt11char_traitsIcEERSt13basic_ostreamIcT_ES5_PKc(ptr noundef nonnull align 8 dereferenceable(8) %16, ptr noundef @.str.2)
  br label %34

18:                                               ; preds = %2
  %19 = load ptr, ptr %3, align 8, !tbaa !3
  %20 = call noundef nonnull align 8 dereferenceable(8) ptr @_ZStlsISt11char_traitsIcEERSt13basic_ostreamIcT_ES5_PKc(ptr noundef nonnull align 8 dereferenceable(8) %19, ptr noundef @.str.3)
  br label %34

21:                                               ; preds = %2
  %22 = load ptr, ptr %3, align 8, !tbaa !3
  %23 = call noundef nonnull align 8 dereferenceable(8) ptr @_ZStlsISt11char_traitsIcEERSt13basic_ostreamIcT_ES5_PKc(ptr noundef nonnull align 8 dereferenceable(8) %22, ptr noundef @.str.4)
  br label %34

24:                                               ; preds = %2
  call void @llvm.lifetime.start.p0(i64 1, ptr %5) #3
  call void @_ZN4cvc58internal11FatalStreamC1EPKcS3_i(ptr noundef nonnull align 1 dereferenceable(1) %5, ptr noundef @__PRETTY_FUNCTION__._ZN4cvc58internallsERSoNS0_12RoundingModeE, ptr noundef @.str.5, i32 noundef 41)
  %25 = invoke noundef nonnull align 8 dereferenceable(8) ptr @_ZN4cvc58internal11FatalStream6streamEv(ptr noundef nonnull align 1 dereferenceable(1) %5)
          to label %26 unwind label %29

26:                                               ; preds = %24
  %27 = invoke noundef nonnull align 8 dereferenceable(8) ptr @_ZStlsISt11char_traitsIcEERSt13basic_ostreamIcT_ES5_PKc(ptr noundef nonnull align 8 dereferenceable(8) %25, ptr noundef @.str.6)
          to label %28 unwind label %29

28:                                               ; preds = %26
  call void @_ZN4cvc58internal11FatalStreamD1Ev(ptr noundef nonnull align 1 dereferenceable(1) %5) #10
  unreachable

29:                                               ; preds = %26, %24
  %30 = landingpad { ptr, i32 }
          cleanup
  %31 = extractvalue { ptr, i32 } %30, 0
  store ptr %31, ptr %6, align 8
  %32 = extractvalue { ptr, i32 } %30, 1
  store i32 %32, ptr %7, align 4
  call void @_ZN4cvc58internal11FatalStreamD1Ev(ptr noundef nonnull align 1 dereferenceable(1) %5) #10
  unreachable

33:                                               ; No predecessors!
  call void @llvm.lifetime.end.p0(i64 1, ptr %5) #3
  br label %36

34:                                               ; preds = %21, %18, %15, %12, %9
  %35 = load ptr, ptr %3, align 8, !tbaa !3
  ret ptr %35

36:                                               ; preds = %33
  %37 = load ptr, ptr %6, align 8
  %38 = load i32, ptr %7, align 4
  %39 = insertvalue { ptr, i32 } poison, ptr %37, 0
  %40 = insertvalue { ptr, i32 } %39, i32 %38, 1
  resume { ptr, i32 } %40
}

; Function Attrs: inlinehint mustprogress uwtable
define available_externally noundef nonnull align 8 dereferenceable(8) ptr @_ZStlsISt11char_traitsIcEERSt13basic_ostreamIcT_ES5_PKc(ptr noundef nonnull align 8 dereferenceable(8) %0, ptr noundef %1) #5 {
  %3 = alloca ptr, align 8
  %4 = alloca ptr, align 8
  store ptr %0, ptr %3, align 8, !tbaa !3
  store ptr %1, ptr %4, align 8, !tbaa !10
  %5 = load ptr, ptr %4, align 8, !tbaa !10
  %6 = icmp ne ptr %5, null
  br i1 %6, label %13, label %7

7:                                                ; preds = %2
  %8 = load ptr, ptr %3, align 8, !tbaa !3
  %9 = load ptr, ptr %8, align 8, !tbaa !12
  %10 = getelementptr i8, ptr %9, i64 -24
  %11 = load i64, ptr %10, align 8
  %12 = getelementptr inbounds i8, ptr %8, i64 %11
  call void @_ZNSt9basic_iosIcSt11char_traitsIcEE8setstateESt12_Ios_Iostate(ptr noundef nonnull align 8 dereferenceable(264) %12, i32 noundef 1)
  br label %19

13:                                               ; preds = %2
  %14 = load ptr, ptr %3, align 8, !tbaa !3
  %15 = load ptr, ptr %4, align 8, !tbaa !10
  %16 = load ptr, ptr %4, align 8, !tbaa !10
  %17 = call noundef i64 @_ZNSt11char_traitsIcE6lengthEPKc(ptr noundef %16)
  %18 = call noundef nonnull align 8 dereferenceable(8) ptr @_ZSt16__ostream_insertIcSt11char_traitsIcEERSt13basic_ostreamIT_T0_ES6_PKS3_l(ptr noundef nonnull align 8 dereferenceable(8) %14, ptr noundef %15, i64 noundef %17)
  br label %19

19:                                               ; preds = %13, %7
  %20 = load ptr, ptr %3, align 8, !tbaa !3
  ret ptr %20
}

; Function Attrs: nocallback nofree nosync nounwind willreturn memory(argmem: readwrite)
declare void @llvm.lifetime.start.p0(i64 immarg, ptr captures(none)) #6

declare void @_ZN4cvc58internal11FatalStreamC1EPKcS3_i(ptr noundef nonnull align 1 dereferenceable(1), ptr noundef, ptr noundef, i32 noundef) unnamed_addr #1

declare noundef nonnull align 8 dereferenceable(8) ptr @_ZN4cvc58internal11FatalStream6streamEv(ptr noundef nonnull align 1 dereferenceable(1)) #1

declare i32 @__gxx_personality_v0(...)

; Function Attrs: noreturn nounwind
declare void @_ZN4cvc58internal11FatalStreamD1Ev(ptr noundef nonnull align 1 dereferenceable(1)) unnamed_addr #7

; Function Attrs: nocallback nofree nosync nounwind willreturn memory(argmem: readwrite)
declare void @llvm.lifetime.end.p0(i64 immarg, ptr captures(none)) #6

; Function Attrs: mustprogress uwtable
define available_externally void @_ZNSt9basic_iosIcSt11char_traitsIcEE8setstateESt12_Ios_Iostate(ptr noundef nonnull align 8 dereferenceable(264) %0, i32 noundef %1) #4 align 2 {
  %3 = alloca ptr, align 8
  %4 = alloca i32, align 4
  store ptr %0, ptr %3, align 8, !tbaa !14
  store i32 %1, ptr %4, align 4, !tbaa !16
  %5 = load ptr, ptr %3, align 8
  %6 = call noundef i32 @_ZNKSt9basic_iosIcSt11char_traitsIcEE7rdstateEv(ptr noundef nonnull align 8 dereferenceable(264) %5)
  %7 = load i32, ptr %4, align 4, !tbaa !16
  %8 = call noundef i32 @_ZStorSt12_Ios_IostateS_(i32 noundef %6, i32 noundef %7)
  call void @_ZNSt9basic_iosIcSt11char_traitsIcEE5clearESt12_Ios_Iostate(ptr noundef nonnull align 8 dereferenceable(264) %5, i32 noundef %8)
  ret void
}

declare noundef nonnull align 8 dereferenceable(8) ptr @_ZSt16__ostream_insertIcSt11char_traitsIcEERSt13basic_ostreamIT_T0_ES6_PKS3_l(ptr noundef nonnull align 8 dereferenceable(8), ptr noundef, i64 noundef) #1

; Function Attrs: mustprogress nounwind uwtable
define linkonce_odr hidden noundef i64 @_ZNSt11char_traitsIcE6lengthEPKc(ptr noundef %0) #8 comdat align 2 {
  %2 = alloca ptr, align 8
  store ptr %0, ptr %2, align 8, !tbaa !10
  %3 = load ptr, ptr %2, align 8, !tbaa !10
  %4 = call i64 @strlen(ptr noundef %3) #3
  ret i64 %4
}

declare void @_ZNSt9basic_iosIcSt11char_traitsIcEE5clearESt12_Ios_Iostate(ptr noundef nonnull align 8 dereferenceable(264), i32 noundef) #1

; Function Attrs: inlinehint mustprogress nounwind uwtable
define linkonce_odr noundef i32 @_ZStorSt12_Ios_IostateS_(i32 noundef %0, i32 noundef %1) #9 comdat {
  %3 = alloca i32, align 4
  %4 = alloca i32, align 4
  store i32 %0, ptr %3, align 4, !tbaa !16
  store i32 %1, ptr %4, align 4, !tbaa !16
  %5 = load i32, ptr %3, align 4, !tbaa !16
  %6 = load i32, ptr %4, align 4, !tbaa !16
  %7 = or i32 %5, %6
  ret i32 %7
}

; Function Attrs: mustprogress nounwind uwtable
define available_externally noundef i32 @_ZNKSt9basic_iosIcSt11char_traitsIcEE7rdstateEv(ptr noundef nonnull align 8 dereferenceable(264) %0) #8 align 2 {
  %2 = alloca ptr, align 8
  store ptr %0, ptr %2, align 8, !tbaa !14
  %3 = load ptr, ptr %2, align 8
  %4 = getelementptr inbounds nuw %"class.std::ios_base", ptr %3, i32 0, i32 5
  %5 = load i32, ptr %4, align 8, !tbaa !18
  ret i32 %5
}

; Function Attrs: nounwind
declare i64 @strlen(ptr noundef) #2

; Function Attrs: uwtable
define internal void @_GLOBAL__sub_I_roundingmode.cpp() #0 section ".text.startup" {
  call void @__cxx_global_var_init()
  ret void
}


!llvm.module.flags = !{!0, !1, !2}

!0 = !{i32 1, !"wchar_size", i32 4}
!1 = !{i32 8, !"PIC Level", i32 2}
!2 = !{i32 7, !"uwtable", i32 2}
!3 = !{!4, !4, i64 0}
!4 = !{!"p1 _ZTSSo", !5, i64 0}
!5 = !{!"any pointer", !6, i64 0}
!6 = !{!"omnipotent char", !7, i64 0}
!7 = !{!"Simple C++ TBAA"}
!8 = !{!9, !9, i64 0}
!9 = !{!"_ZTSN4cvc58internal12RoundingModeE", !6, i64 0}
!10 = !{!11, !11, i64 0}
!11 = !{!"p1 omnipotent char", !5, i64 0}
!12 = !{!13, !13, i64 0}
!13 = !{!"vtable pointer", !7, i64 0}
!14 = !{!15, !15, i64 0}
!15 = !{!"p1 _ZTSSt9basic_iosIcSt11char_traitsIcEE", !5, i64 0}
!16 = !{!17, !17, i64 0}
!17 = !{!"_ZTSSt12_Ios_Iostate", !6, i64 0}
!18 = !{!19, !17, i64 32}
!19 = !{!"_ZTSSt8ios_base", !20, i64 8, !20, i64 16, !21, i64 24, !17, i64 28, !17, i64 32, !22, i64 40, !23, i64 48, !6, i64 64, !24, i64 192, !25, i64 200, !26, i64 208}
!20 = !{!"long", !6, i64 0}
!21 = !{!"_ZTSSt13_Ios_Fmtflags", !6, i64 0}
!22 = !{!"p1 _ZTSNSt8ios_base14_Callback_listE", !5, i64 0}
!23 = !{!"_ZTSNSt8ios_base6_WordsE", !5, i64 0, !20, i64 8}
!24 = !{!"int", !6, i64 0}
!25 = !{!"p1 _ZTSNSt8ios_base6_WordsE", !5, i64 0}
!26 = !{!"_ZTSSt6locale", !27, i64 0}
!27 = !{!"p1 _ZTSNSt6locale5_ImplE", !5, i64 0}
